
hello_test.elf:     file format elf32-littleriscv
architecture: riscv:rv32, flags 0x00000112:
EXEC_P, HAS_SYMS, D_PAGED
start address 0x00100080

Sections:
Idx Name          Size      VMA       LMA       File off  Algn
  0 .vectors      00000084  00100000  00100000  00001000  2**0
                  CONTENTS, ALLOC, LOAD, READONLY, CODE
  1 .text         000017c0  00100084  00100084  00001084  2**2
                  CONTENTS, ALLOC, LOAD, READONLY, CODE
  2 .rodata       0000004c  00101844  00101844  00002844  2**2
                  CONTENTS, ALLOC, LOAD, READONLY, DATA
  3 .data         0000012c  00101890  00101890  00002890  2**2
                  CONTENTS, ALLOC, LOAD, DATA
  4 .bss          000000c0  001019c0  001019c0  000029bc  2**3
                  ALLOC
  5 .stack        00002000  01300000  01300000  00003000  2**0
                  ALLOC
  6 .comment      0000002e  00000000  00000000  000029bc  2**0
                  CONTENTS, READONLY
  7 .riscv.attributes 00000025  00000000  00000000  000029ea  2**0
                  CONTENTS, READONLY

Disassembly of section .vectors:

00100000 <_vectors_start>:
  100000:	7200106f          	j	101720 <default_exc_handler>
  100004:	71c0106f          	j	101720 <default_exc_handler>
  100008:	7180106f          	j	101720 <default_exc_handler>
  10000c:	7140106f          	j	101720 <default_exc_handler>
  100010:	7100106f          	j	101720 <default_exc_handler>
  100014:	70c0106f          	j	101720 <default_exc_handler>
  100018:	7080106f          	j	101720 <default_exc_handler>
  10001c:	7080106f          	j	101724 <timer_handler>
  100020:	7000106f          	j	101720 <default_exc_handler>
  100024:	6fc0106f          	j	101720 <default_exc_handler>
  100028:	6f80106f          	j	101720 <default_exc_handler>
  10002c:	6f40106f          	j	101720 <default_exc_handler>
  100030:	6f00106f          	j	101720 <default_exc_handler>
  100034:	6ec0106f          	j	101720 <default_exc_handler>
  100038:	6e80106f          	j	101720 <default_exc_handler>
  10003c:	6e40106f          	j	101720 <default_exc_handler>
  100040:	6e00106f          	j	101720 <default_exc_handler>
  100044:	6dc0106f          	j	101720 <default_exc_handler>
  100048:	6d80106f          	j	101720 <default_exc_handler>
  10004c:	6d40106f          	j	101720 <default_exc_handler>
  100050:	6d00106f          	j	101720 <default_exc_handler>
  100054:	6cc0106f          	j	101720 <default_exc_handler>
  100058:	6c80106f          	j	101720 <default_exc_handler>
  10005c:	6c40106f          	j	101720 <default_exc_handler>
  100060:	6c00106f          	j	101720 <default_exc_handler>
  100064:	6bc0106f          	j	101720 <default_exc_handler>
  100068:	6b80106f          	j	101720 <default_exc_handler>
  10006c:	6b40106f          	j	101720 <default_exc_handler>
  100070:	6b00106f          	j	101720 <default_exc_handler>
  100074:	6ac0106f          	j	101720 <default_exc_handler>
  100078:	6a80106f          	j	101720 <default_exc_handler>
  10007c:	0000                	unimp
  10007e:	0000                	unimp
  100080:	6a80106f          	j	101728 <reset_handler>

Disassembly of section .text:

00100084 <AES_init_ctx>:
  100084:	00350793          	addi	a5,a0,3
  100088:	fd010113          	addi	sp,sp,-48
  10008c:	40b787b3          	sub	a5,a5,a1
  100090:	02812623          	sw	s0,44(sp)
  100094:	02912423          	sw	s1,40(sp)
  100098:	03212223          	sw	s2,36(sp)
  10009c:	03312023          	sw	s3,32(sp)
  1000a0:	01412e23          	sw	s4,28(sp)
  1000a4:	01512c23          	sw	s5,24(sp)
  1000a8:	01612a23          	sw	s6,20(sp)
  1000ac:	01712823          	sw	s7,16(sp)
  1000b0:	01812623          	sw	s8,12(sp)
  1000b4:	01912423          	sw	s9,8(sp)
  1000b8:	01a12223          	sw	s10,4(sp)
  1000bc:	0077b793          	sltiu	a5,a5,7
  1000c0:	18079463          	bnez	a5,100248 <AES_init_ctx+0x1c4>
  1000c4:	00b567b3          	or	a5,a0,a1
  1000c8:	0037f793          	andi	a5,a5,3
  1000cc:	16079e63          	bnez	a5,100248 <AES_init_ctx+0x1c4>
  1000d0:	0005a783          	lw	a5,0(a1)
  1000d4:	00f52023          	sw	a5,0(a0)
  1000d8:	0045a783          	lw	a5,4(a1)
  1000dc:	00f52223          	sw	a5,4(a0)
  1000e0:	0085a783          	lw	a5,8(a1)
  1000e4:	00f52423          	sw	a5,8(a0)
  1000e8:	00c5a783          	lw	a5,12(a1)
  1000ec:	00f52623          	sw	a5,12(a0)
  1000f0:	00354a83          	lbu	s5,3(a0)
  1000f4:	00754983          	lbu	s3,7(a0)
  1000f8:	00b54903          	lbu	s2,11(a0)
  1000fc:	00f54e03          	lbu	t3,15(a0)
  100100:	00254b03          	lbu	s6,2(a0)
  100104:	00654483          	lbu	s1,6(a0)
  100108:	00a54403          	lbu	s0,10(a0)
  10010c:	00e54303          	lbu	t1,14(a0)
  100110:	00154383          	lbu	t2,1(a0)
  100114:	00554283          	lbu	t0,5(a0)
  100118:	00954f83          	lbu	t6,9(a0)
  10011c:	00d54883          	lbu	a7,13(a0)
  100120:	00054b83          	lbu	s7,0(a0)
  100124:	00454f03          	lbu	t5,4(a0)
  100128:	00854e83          	lbu	t4,8(a0)
  10012c:	00c54803          	lbu	a6,12(a0)
  100130:	01050613          	addi	a2,a0,16
  100134:	00001597          	auipc	a1,0x1
  100138:	75c58593          	addi	a1,a1,1884 # 101890 <sbox>
  10013c:	00400513          	li	a0,4
  100140:	02c00a13          	li	s4,44
  100144:	09c0006f          	j	1001e0 <AES_init_ctx+0x15c>
  100148:	100d4783          	lbu	a5,256(s10)
  10014c:	000ccc83          	lbu	s9,0(s9)
  100150:	000c4c03          	lbu	s8,0(s8)
  100154:	0006c683          	lbu	a3,0(a3)
  100158:	00074703          	lbu	a4,0(a4)
  10015c:	0197c7b3          	xor	a5,a5,s9
  100160:	0ff7f793          	andi	a5,a5,255
  100164:	0177c7b3          	xor	a5,a5,s7
  100168:	0183c3b3          	xor	t2,t2,s8
  10016c:	00db46b3          	xor	a3,s6,a3
  100170:	01574733          	xor	a4,a4,s5
  100174:	0ff3fc13          	andi	s8,t2,255
  100178:	0ff7f793          	andi	a5,a5,255
  10017c:	0ff6f693          	andi	a3,a3,255
  100180:	0ff77713          	andi	a4,a4,255
  100184:	00f60023          	sb	a5,0(a2)
  100188:	018600a3          	sb	s8,1(a2)
  10018c:	00d60123          	sb	a3,2(a2)
  100190:	00e601a3          	sb	a4,3(a2)
  100194:	00150513          	addi	a0,a0,1
  100198:	00098a93          	mv	s5,s3
  10019c:	00048b13          	mv	s6,s1
  1001a0:	00090993          	mv	s3,s2
  1001a4:	00040493          	mv	s1,s0
  1001a8:	00028393          	mv	t2,t0
  1001ac:	000f0b93          	mv	s7,t5
  1001b0:	000f8293          	mv	t0,t6
  1001b4:	000e8f13          	mv	t5,t4
  1001b8:	000e0913          	mv	s2,t3
  1001bc:	00030413          	mv	s0,t1
  1001c0:	00088f93          	mv	t6,a7
  1001c4:	00080e93          	mv	t4,a6
  1001c8:	00460613          	addi	a2,a2,4
  1001cc:	05450463          	beq	a0,s4,100214 <AES_init_ctx+0x190>
  1001d0:	00078813          	mv	a6,a5
  1001d4:	000c0893          	mv	a7,s8
  1001d8:	00068313          	mv	t1,a3
  1001dc:	00070e13          	mv	t3,a4
  1001e0:	00255793          	srli	a5,a0,0x2
  1001e4:	00f58d33          	add	s10,a1,a5
  1001e8:	00357793          	andi	a5,a0,3
  1001ec:	01158cb3          	add	s9,a1,a7
  1001f0:	00658c33          	add	s8,a1,t1
  1001f4:	01c586b3          	add	a3,a1,t3
  1001f8:	01058733          	add	a4,a1,a6
  1001fc:	f40786e3          	beqz	a5,100148 <AES_init_ctx+0xc4>
  100200:	000e0713          	mv	a4,t3
  100204:	00030693          	mv	a3,t1
  100208:	00088c13          	mv	s8,a7
  10020c:	00080793          	mv	a5,a6
  100210:	f55ff06f          	j	100164 <AES_init_ctx+0xe0>
  100214:	02c12403          	lw	s0,44(sp)
  100218:	02812483          	lw	s1,40(sp)
  10021c:	02412903          	lw	s2,36(sp)
  100220:	02012983          	lw	s3,32(sp)
  100224:	01c12a03          	lw	s4,28(sp)
  100228:	01812a83          	lw	s5,24(sp)
  10022c:	01412b03          	lw	s6,20(sp)
  100230:	01012b83          	lw	s7,16(sp)
  100234:	00c12c03          	lw	s8,12(sp)
  100238:	00812c83          	lw	s9,8(sp)
  10023c:	00412d03          	lw	s10,4(sp)
  100240:	03010113          	addi	sp,sp,48
  100244:	00008067          	ret
  100248:	0005c783          	lbu	a5,0(a1)
  10024c:	00f50023          	sb	a5,0(a0)
  100250:	0015c783          	lbu	a5,1(a1)
  100254:	00f500a3          	sb	a5,1(a0)
  100258:	0025c783          	lbu	a5,2(a1)
  10025c:	00f50123          	sb	a5,2(a0)
  100260:	0035c783          	lbu	a5,3(a1)
  100264:	00f501a3          	sb	a5,3(a0)
  100268:	0045c783          	lbu	a5,4(a1)
  10026c:	00f50223          	sb	a5,4(a0)
  100270:	0055c783          	lbu	a5,5(a1)
  100274:	00f502a3          	sb	a5,5(a0)
  100278:	0065c783          	lbu	a5,6(a1)
  10027c:	00f50323          	sb	a5,6(a0)
  100280:	0075c783          	lbu	a5,7(a1)
  100284:	00f503a3          	sb	a5,7(a0)
  100288:	0085c783          	lbu	a5,8(a1)
  10028c:	00f50423          	sb	a5,8(a0)
  100290:	0095c783          	lbu	a5,9(a1)
  100294:	00f504a3          	sb	a5,9(a0)
  100298:	00a5c783          	lbu	a5,10(a1)
  10029c:	00f50523          	sb	a5,10(a0)
  1002a0:	00b5c783          	lbu	a5,11(a1)
  1002a4:	00f505a3          	sb	a5,11(a0)
  1002a8:	00c5c783          	lbu	a5,12(a1)
  1002ac:	00f50623          	sb	a5,12(a0)
  1002b0:	00d5c783          	lbu	a5,13(a1)
  1002b4:	00f506a3          	sb	a5,13(a0)
  1002b8:	00e5c783          	lbu	a5,14(a1)
  1002bc:	00f50723          	sb	a5,14(a0)
  1002c0:	00f5c783          	lbu	a5,15(a1)
  1002c4:	00f507a3          	sb	a5,15(a0)
  1002c8:	e29ff06f          	j	1000f0 <AES_init_ctx+0x6c>

001002cc <AES_ECB_encrypt>:
  1002cc:	f1010113          	addi	sp,sp,-240
  1002d0:	0e812623          	sw	s0,236(sp)
  1002d4:	0f312023          	sw	s3,224(sp)
  1002d8:	0d512c23          	sw	s5,216(sp)
  1002dc:	0db12023          	sw	s11,192(sp)
  1002e0:	0e912423          	sw	s1,232(sp)
  1002e4:	0f212223          	sw	s2,228(sp)
  1002e8:	0d412e23          	sw	s4,220(sp)
  1002ec:	0d612a23          	sw	s6,212(sp)
  1002f0:	0d712823          	sw	s7,208(sp)
  1002f4:	0d812623          	sw	s8,204(sp)
  1002f8:	0d912423          	sw	s9,200(sp)
  1002fc:	0da12223          	sw	s10,196(sp)
  100300:	00054783          	lbu	a5,0(a0)
  100304:	0005cd03          	lbu	s10,0(a1)
  100308:	0015cc83          	lbu	s9,1(a1)
  10030c:	00058313          	mv	t1,a1
  100310:	00fd4d33          	xor	s10,s10,a5
  100314:	0ffd7d13          	andi	s10,s10,255
  100318:	01a58023          	sb	s10,0(a1)
  10031c:	00154783          	lbu	a5,1(a0)
  100320:	0025cb83          	lbu	s7,2(a1)
  100324:	0035c603          	lbu	a2,3(a1)
  100328:	00fcccb3          	xor	s9,s9,a5
  10032c:	0ffcfc93          	andi	s9,s9,255
  100330:	0045c583          	lbu	a1,4(a1)
  100334:	019300a3          	sb	s9,1(t1)
  100338:	00254783          	lbu	a5,2(a0)
  10033c:	00050813          	mv	a6,a0
  100340:	0aa12e23          	sw	a0,188(sp)
  100344:	00fbcbb3          	xor	s7,s7,a5
  100348:	0ffbfb93          	andi	s7,s7,255
  10034c:	01730123          	sb	s7,2(t1)
  100350:	00354503          	lbu	a0,3(a0)
  100354:	00534683          	lbu	a3,5(t1)
  100358:	00734703          	lbu	a4,7(t1)
  10035c:	00a64633          	xor	a2,a2,a0
  100360:	0ff67613          	andi	a2,a2,255
  100364:	00c301a3          	sb	a2,3(t1)
  100368:	00484a03          	lbu	s4,4(a6)
  10036c:	00834783          	lbu	a5,8(t1)
  100370:	00634483          	lbu	s1,6(t1)
  100374:	00ba4a33          	xor	s4,s4,a1
  100378:	0ffa7a13          	andi	s4,s4,255
  10037c:	00934f83          	lbu	t6,9(t1)
  100380:	00a34e83          	lbu	t4,10(t1)
  100384:	01430223          	sb	s4,4(t1)
  100388:	00584983          	lbu	s3,5(a6)
  10038c:	00b34e03          	lbu	t3,11(t1)
  100390:	00080593          	mv	a1,a6
  100394:	00d9c9b3          	xor	s3,s3,a3
  100398:	0ff9f993          	andi	s3,s3,255
  10039c:	013302a3          	sb	s3,5(t1)
  1003a0:	00684683          	lbu	a3,6(a6)
  1003a4:	00c34883          	lbu	a7,12(t1)
  1003a8:	0a080513          	addi	a0,a6,160
  1003ac:	00d4c4b3          	xor	s1,s1,a3
  1003b0:	0ff4f493          	andi	s1,s1,255
  1003b4:	00930323          	sb	s1,6(t1)
  1003b8:	00784403          	lbu	s0,7(a6)
  1003bc:	01080f13          	addi	t5,a6,16
  1003c0:	0aa12c23          	sw	a0,184(sp)
  1003c4:	00e44433          	xor	s0,s0,a4
  1003c8:	0ff47413          	andi	s0,s0,255
  1003cc:	008303a3          	sb	s0,7(t1)
  1003d0:	00884283          	lbu	t0,8(a6)
  1003d4:	00e34703          	lbu	a4,14(t1)
  1003d8:	000d0393          	mv	t2,s10
  1003dc:	00f2c2b3          	xor	t0,t0,a5
  1003e0:	0ff2f293          	andi	t0,t0,255
  1003e4:	00530423          	sb	t0,8(t1)
  1003e8:	00984783          	lbu	a5,9(a6)
  1003ec:	000a0a93          	mv	s5,s4
  1003f0:	00001d97          	auipc	s11,0x1
  1003f4:	4a0d8d93          	addi	s11,s11,1184 # 101890 <sbox>
  1003f8:	00ffcfb3          	xor	t6,t6,a5
  1003fc:	0fffff93          	andi	t6,t6,255
  100400:	01f304a3          	sb	t6,9(t1)
  100404:	00a84783          	lbu	a5,10(a6)
  100408:	00048d13          	mv	s10,s1
  10040c:	00040a13          	mv	s4,s0
  100410:	00feceb3          	xor	t4,t4,a5
  100414:	0ffefe93          	andi	t4,t4,255
  100418:	01d30523          	sb	t4,10(t1)
  10041c:	00b84783          	lbu	a5,11(a6)
  100420:	00d34803          	lbu	a6,13(t1)
  100424:	00fe4e33          	xor	t3,t3,a5
  100428:	0ffe7e13          	andi	t3,t3,255
  10042c:	01c305a3          	sb	t3,11(t1)
  100430:	00c5c683          	lbu	a3,12(a1)
  100434:	00f34783          	lbu	a5,15(t1)
  100438:	00d8c8b3          	xor	a7,a7,a3
  10043c:	0ff8f893          	andi	a7,a7,255
  100440:	01130623          	sb	a7,12(t1)
  100444:	00d5c683          	lbu	a3,13(a1)
  100448:	00d84833          	xor	a6,a6,a3
  10044c:	0ff87813          	andi	a6,a6,255
  100450:	010306a3          	sb	a6,13(t1)
  100454:	00e5c683          	lbu	a3,14(a1)
  100458:	00d74733          	xor	a4,a4,a3
  10045c:	0ff77713          	andi	a4,a4,255
  100460:	00e30723          	sb	a4,14(t1)
  100464:	00f5c683          	lbu	a3,15(a1)
  100468:	00070513          	mv	a0,a4
  10046c:	000e8593          	mv	a1,t4
  100470:	00d7c7b3          	xor	a5,a5,a3
  100474:	0ff7f793          	andi	a5,a5,255
  100478:	000f8e93          	mv	t4,t6
  10047c:	00f307a3          	sb	a5,15(t1)
  100480:	00098693          	mv	a3,s3
  100484:	00028f93          	mv	t6,t0
  100488:	000e0713          	mv	a4,t3
  10048c:	6b80006f          	j	100b44 <AES_ECB_encrypt+0x878>
  100490:	00050613          	mv	a2,a0
  100494:	016e43b3          	xor	t2,t3,s6
  100498:	00ce4633          	xor	a2,t3,a2
  10049c:	00812e03          	lw	t3,8(sp)
  1004a0:	01f8cbb3          	xor	s7,a7,t6
  1004a4:	00e4c8b3          	xor	a7,s1,a4
  1004a8:	01cd4eb3          	xor	t4,s10,t3
  1004ac:	05d12e23          	sw	t4,92(sp)
  1004b0:	00b9ceb3          	xor	t4,s3,a1
  1004b4:	00e94733          	xor	a4,s2,a4
  1004b8:	07d12c23          	sw	t4,120(sp)
  1004bc:	0073de93          	srli	t4,t2,0x7
  1004c0:	06e12623          	sw	a4,108(sp)
  1004c4:	000e8713          	mv	a4,t4
  1004c8:	018b4eb3          	xor	t4,s6,s8
  1004cc:	00ac4a33          	xor	s4,s8,a0
  1004d0:	00f94cb3          	xor	s9,s2,a5
  1004d4:	00d446b3          	xor	a3,s0,a3
  1004d8:	0097c7b3          	xor	a5,a5,s1
  1004dc:	007ede93          	srli	t4,t4,0x7
  1004e0:	01f2ce33          	xor	t3,t0,t6
  1004e4:	06f12423          	sw	a5,104(sp)
  1004e8:	06d12a23          	sw	a3,116(sp)
  1004ec:	05c12783          	lw	a5,92(sp)
  1004f0:	000e8693          	mv	a3,t4
  1004f4:	007a5e93          	srli	t4,s4,0x7
  1004f8:	01a2cab3          	xor	s5,t0,s10
  1004fc:	07c12023          	sw	t3,96(sp)
  100500:	000e8e13          	mv	t3,t4
  100504:	00765e93          	srli	t4,a2,0x7
  100508:	000e8293          	mv	t0,t4
  10050c:	05512c23          	sw	s5,88(sp)
  100510:	007ade93          	srli	t4,s5,0x7
  100514:	06012a83          	lw	s5,96(sp)
  100518:	000e8913          	mv	s2,t4
  10051c:	0077de93          	srli	t4,a5,0x7
  100520:	0089c533          	xor	a0,s3,s0
  100524:	05712823          	sw	s7,80(sp)
  100528:	000e8993          	mv	s3,t4
  10052c:	007bde93          	srli	t4,s7,0x7
  100530:	06812b83          	lw	s7,104(sp)
  100534:	000e8793          	mv	a5,t4
  100538:	007ade93          	srli	t4,s5,0x7
  10053c:	07412e23          	sw	s4,124(sp)
  100540:	000e8a13          	mv	s4,t4
  100544:	007cde93          	srli	t4,s9,0x7
  100548:	00b84833          	xor	a6,a6,a1
  10054c:	000e8593          	mv	a1,t4
  100550:	007bde93          	srli	t4,s7,0x7
  100554:	00755a93          	srli	s5,a0,0x7
  100558:	07912223          	sw	s9,100(sp)
  10055c:	01d12623          	sw	t4,12(sp)
  100560:	06c12c83          	lw	s9,108(sp)
  100564:	0078de93          	srli	t4,a7,0x7
  100568:	05112a23          	sw	a7,84(sp)
  10056c:	06a12823          	sw	a0,112(sp)
  100570:	07412883          	lw	a7,116(sp)
  100574:	07812503          	lw	a0,120(sp)
  100578:	0ac12023          	sw	a2,160(sp)
  10057c:	0078db93          	srli	s7,a7,0x7
  100580:	007cd613          	srli	a2,s9,0x7
  100584:	00755893          	srli	a7,a0,0x7
  100588:	00785c93          	srli	s9,a6,0x7
  10058c:	01d12823          	sw	t4,16(sp)
  100590:	00c12a23          	sw	a2,20(sp)
  100594:	00070e93          	mv	t4,a4
  100598:	01512c23          	sw	s5,24(sp)
  10059c:	01712e23          	sw	s7,28(sp)
  1005a0:	05012623          	sw	a6,76(sp)
  1005a4:	03912023          	sw	s9,32(sp)
  1005a8:	03112223          	sw	a7,36(sp)
  1005ac:	08d12023          	sw	a3,128(sp)
  1005b0:	00371893          	slli	a7,a4,0x3
  1005b4:	09c12223          	sw	t3,132(sp)
  1005b8:	08512423          	sw	t0,136(sp)
  1005bc:	09212623          	sw	s2,140(sp)
  1005c0:	09312823          	sw	s3,144(sp)
  1005c4:	41d888b3          	sub	a7,a7,t4
  1005c8:	0bd12223          	sw	t4,164(sp)
  1005cc:	08012e83          	lw	t4,128(sp)
  1005d0:	00369b93          	slli	s7,a3,0x3
  1005d4:	003e1a93          	slli	s5,t3,0x3
  1005d8:	41db8bb3          	sub	s7,s7,t4
  1005dc:	08412e83          	lw	t4,132(sp)
  1005e0:	00329813          	slli	a6,t0,0x3
  1005e4:	00391293          	slli	t0,s2,0x3
  1005e8:	41da8ab3          	sub	s5,s5,t4
  1005ec:	08812e83          	lw	t4,136(sp)
  1005f0:	08f12a23          	sw	a5,148(sp)
  1005f4:	00399693          	slli	a3,s3,0x3
  1005f8:	41d80833          	sub	a6,a6,t4
  1005fc:	08c12e83          	lw	t4,140(sp)
  100600:	09412c23          	sw	s4,152(sp)
  100604:	00379513          	slli	a0,a5,0x3
  100608:	41d282b3          	sub	t0,t0,t4
  10060c:	09012e83          	lw	t4,144(sp)
  100610:	08b12e23          	sw	a1,156(sp)
  100614:	003a1613          	slli	a2,s4,0x3
  100618:	41d686b3          	sub	a3,a3,t4
  10061c:	09412e83          	lw	t4,148(sp)
  100620:	00c12703          	lw	a4,12(sp)
  100624:	00359c93          	slli	s9,a1,0x3
  100628:	41d50533          	sub	a0,a0,t4
  10062c:	09812e83          	lw	t4,152(sp)
  100630:	01012783          	lw	a5,16(sp)
  100634:	00371993          	slli	s3,a4,0x3
  100638:	41d60633          	sub	a2,a2,t4
  10063c:	09c12e83          	lw	t4,156(sp)
  100640:	01412a03          	lw	s4,20(sp)
  100644:	00379593          	slli	a1,a5,0x3
  100648:	41dc8cb3          	sub	s9,s9,t4
  10064c:	00c12e83          	lw	t4,12(sp)
  100650:	01812703          	lw	a4,24(sp)
  100654:	003a1913          	slli	s2,s4,0x3
  100658:	41d989b3          	sub	s3,s3,t4
  10065c:	01012e83          	lw	t4,16(sp)
  100660:	01c12e03          	lw	t3,28(sp)
  100664:	00371a13          	slli	s4,a4,0x3
  100668:	41d585b3          	sub	a1,a1,t4
  10066c:	01412e83          	lw	t4,20(sp)
  100670:	02012783          	lw	a5,32(sp)
  100674:	003e1e13          	slli	t3,t3,0x3
  100678:	41d90933          	sub	s2,s2,t4
  10067c:	01812e83          	lw	t4,24(sp)
  100680:	00379713          	slli	a4,a5,0x3
  100684:	02412783          	lw	a5,36(sp)
  100688:	41da0a33          	sub	s4,s4,t4
  10068c:	01c12e83          	lw	t4,28(sp)
  100690:	002a1a13          	slli	s4,s4,0x2
  100694:	0b412423          	sw	s4,168(sp)
  100698:	41de0e33          	sub	t3,t3,t4
  10069c:	02012e83          	lw	t4,32(sp)
  1006a0:	07c12a03          	lw	s4,124(sp)
  1006a4:	00379793          	slli	a5,a5,0x3
  1006a8:	41d70733          	sub	a4,a4,t4
  1006ac:	02412e83          	lw	t4,36(sp)
  1006b0:	00271713          	slli	a4,a4,0x2
  1006b4:	002e1e13          	slli	t3,t3,0x2
  1006b8:	41d787b3          	sub	a5,a5,t4
  1006bc:	0ae12823          	sw	a4,176(sp)
  1006c0:	00279713          	slli	a4,a5,0x2
  1006c4:	0bc12623          	sw	t3,172(sp)
  1006c8:	05012783          	lw	a5,80(sp)
  1006cc:	0143ce33          	xor	t3,t2,s4
  1006d0:	0ae12a23          	sw	a4,180(sp)
  1006d4:	05812a03          	lw	s4,88(sp)
  1006d8:	06412703          	lw	a4,100(sp)
  1006dc:	04c12e83          	lw	t4,76(sp)
  1006e0:	0147ca33          	xor	s4,a5,s4
  1006e4:	05412783          	lw	a5,84(sp)
  1006e8:	00289893          	slli	a7,a7,0x2
  1006ec:	002b9b93          	slli	s7,s7,0x2
  1006f0:	00e7c733          	xor	a4,a5,a4
  1006f4:	07012783          	lw	a5,112(sp)
  1006f8:	002a9a93          	slli	s5,s5,0x2
  1006fc:	00281813          	slli	a6,a6,0x2
  100700:	00fec7b3          	xor	a5,t4,a5
  100704:	0a412e83          	lw	t4,164(sp)
  100708:	00229293          	slli	t0,t0,0x2
  10070c:	00269693          	slli	a3,a3,0x2
  100710:	41d888b3          	sub	a7,a7,t4
  100714:	00139e93          	slli	t4,t2,0x1
  100718:	0bd12223          	sw	t4,164(sp)
  10071c:	08012e83          	lw	t4,128(sp)
  100720:	018b43b3          	xor	t2,s6,s8
  100724:	00139393          	slli	t2,t2,0x1
  100728:	41db8bb3          	sub	s7,s7,t4
  10072c:	08412e83          	lw	t4,132(sp)
  100730:	08712023          	sw	t2,128(sp)
  100734:	07c12383          	lw	t2,124(sp)
  100738:	41da8ab3          	sub	s5,s5,t4
  10073c:	08812e83          	lw	t4,136(sp)
  100740:	00139393          	slli	t2,t2,0x1
  100744:	06712e23          	sw	t2,124(sp)
  100748:	41d80833          	sub	a6,a6,t4
  10074c:	08c12e83          	lw	t4,140(sp)
  100750:	0a012383          	lw	t2,160(sp)
  100754:	00251513          	slli	a0,a0,0x2
  100758:	41d282b3          	sub	t0,t0,t4
  10075c:	09012e83          	lw	t4,144(sp)
  100760:	00139393          	slli	t2,t2,0x1
  100764:	08712223          	sw	t2,132(sp)
  100768:	05812383          	lw	t2,88(sp)
  10076c:	41d686b3          	sub	a3,a3,t4
  100770:	09412e83          	lw	t4,148(sp)
  100774:	00139393          	slli	t2,t2,0x1
  100778:	04712c23          	sw	t2,88(sp)
  10077c:	41d50533          	sub	a0,a0,t4
  100780:	05c12383          	lw	t2,92(sp)
  100784:	09812e83          	lw	t4,152(sp)
  100788:	00261613          	slli	a2,a2,0x2
  10078c:	00139393          	slli	t2,t2,0x1
  100790:	41d60633          	sub	a2,a2,t4
  100794:	04712e23          	sw	t2,92(sp)
  100798:	08c12423          	sw	a2,136(sp)
  10079c:	05012383          	lw	t2,80(sp)
  1007a0:	06012603          	lw	a2,96(sp)
  1007a4:	002c9c93          	slli	s9,s9,0x2
  1007a8:	00139393          	slli	t2,t2,0x1
  1007ac:	00161613          	slli	a2,a2,0x1
  1007b0:	04712823          	sw	t2,80(sp)
  1007b4:	06c12023          	sw	a2,96(sp)
  1007b8:	06412383          	lw	t2,100(sp)
  1007bc:	09c12603          	lw	a2,156(sp)
  1007c0:	00c12e83          	lw	t4,12(sp)
  1007c4:	00299993          	slli	s3,s3,0x2
  1007c8:	40cc8cb3          	sub	s9,s9,a2
  1007cc:	00139613          	slli	a2,t2,0x1
  1007d0:	06c12223          	sw	a2,100(sp)
  1007d4:	06812603          	lw	a2,104(sp)
  1007d8:	05412383          	lw	t2,84(sp)
  1007dc:	41d989b3          	sub	s3,s3,t4
  1007e0:	00161613          	slli	a2,a2,0x1
  1007e4:	06c12423          	sw	a2,104(sp)
  1007e8:	00139613          	slli	a2,t2,0x1
  1007ec:	01012e83          	lw	t4,16(sp)
  1007f0:	01412383          	lw	t2,20(sp)
  1007f4:	04c12a23          	sw	a2,84(sp)
  1007f8:	06c12603          	lw	a2,108(sp)
  1007fc:	00259593          	slli	a1,a1,0x2
  100800:	00291913          	slli	s2,s2,0x2
  100804:	41d585b3          	sub	a1,a1,t4
  100808:	40790933          	sub	s2,s2,t2
  10080c:	00161e93          	slli	t4,a2,0x1
  100810:	01812383          	lw	t2,24(sp)
  100814:	0a812603          	lw	a2,168(sp)
  100818:	07d12623          	sw	t4,108(sp)
  10081c:	016e4b33          	xor	s6,t3,s6
  100820:	40760633          	sub	a2,a2,t2
  100824:	07012383          	lw	t2,112(sp)
  100828:	08c12623          	sw	a2,140(sp)
  10082c:	0ac12603          	lw	a2,172(sp)
  100830:	00139e93          	slli	t4,t2,0x1
  100834:	01c12383          	lw	t2,28(sp)
  100838:	07d12823          	sw	t4,112(sp)
  10083c:	04c12e83          	lw	t4,76(sp)
  100840:	40760633          	sub	a2,a2,t2
  100844:	07412383          	lw	t2,116(sp)
  100848:	08c12823          	sw	a2,144(sp)
  10084c:	0b012603          	lw	a2,176(sp)
  100850:	00139393          	slli	t2,t2,0x1
  100854:	06712a23          	sw	t2,116(sp)
  100858:	02012383          	lw	t2,32(sp)
  10085c:	018e4c33          	xor	s8,t3,s8
  100860:	01aa4d33          	xor	s10,s4,s10
  100864:	407603b3          	sub	t2,a2,t2
  100868:	08712a23          	sw	t2,148(sp)
  10086c:	001e9613          	slli	a2,t4,0x1
  100870:	0b412383          	lw	t2,180(sp)
  100874:	02412e83          	lw	t4,36(sp)
  100878:	010f0f13          	addi	t5,t5,16
  10087c:	41d38eb3          	sub	t4,t2,t4
  100880:	05d12623          	sw	t4,76(sp)
  100884:	07812e83          	lw	t4,120(sp)
  100888:	001e9e93          	slli	t4,t4,0x1
  10088c:	07d12c23          	sw	t4,120(sp)
  100890:	0a412e83          	lw	t4,164(sp)
  100894:	01d8c3b3          	xor	t2,a7,t4
  100898:	02812883          	lw	a7,40(sp)
  10089c:	011e4eb3          	xor	t4,t3,a7
  1008a0:	08012883          	lw	a7,128(sp)
  1008a4:	01d12623          	sw	t4,12(sp)
  1008a8:	011bcbb3          	xor	s7,s7,a7
  1008ac:	07c12883          	lw	a7,124(sp)
  1008b0:	016bcbb3          	xor	s7,s7,s6
  1008b4:	0ffbfb93          	andi	s7,s7,255
  1008b8:	011acab3          	xor	s5,s5,a7
  1008bc:	08412883          	lw	a7,132(sp)
  1008c0:	06012e83          	lw	t4,96(sp)
  1008c4:	018acb33          	xor	s6,s5,s8
  1008c8:	01184833          	xor	a6,a6,a7
  1008cc:	05812883          	lw	a7,88(sp)
  1008d0:	01012823          	sw	a6,16(sp)
  1008d4:	04012803          	lw	a6,64(sp)
  1008d8:	0112c2b3          	xor	t0,t0,a7
  1008dc:	05c12883          	lw	a7,92(sp)
  1008e0:	010e4e33          	xor	t3,t3,a6
  1008e4:	02c12803          	lw	a6,44(sp)
  1008e8:	0116c6b3          	xor	a3,a3,a7
  1008ec:	05012883          	lw	a7,80(sp)
  1008f0:	010a4833          	xor	a6,s4,a6
  1008f4:	01012a23          	sw	a6,20(sp)
  1008f8:	01154533          	xor	a0,a0,a7
  1008fc:	00812883          	lw	a7,8(sp)
  100900:	00a12c23          	sw	a0,24(sp)
  100904:	03012803          	lw	a6,48(sp)
  100908:	011a4533          	xor	a0,s4,a7
  10090c:	08812883          	lw	a7,136(sp)
  100910:	00a12423          	sw	a0,8(sp)
  100914:	01fa4a33          	xor	s4,s4,t6
  100918:	01d8c533          	xor	a0,a7,t4
  10091c:	06412883          	lw	a7,100(sp)
  100920:	01074fb3          	xor	t6,a4,a6
  100924:	03412803          	lw	a6,52(sp)
  100928:	011cccb3          	xor	s9,s9,a7
  10092c:	06812883          	lw	a7,104(sp)
  100930:	00a12e23          	sw	a0,28(sp)
  100934:	03812503          	lw	a0,56(sp)
  100938:	0119c9b3          	xor	s3,s3,a7
  10093c:	05412883          	lw	a7,84(sp)
  100940:	00a74eb3          	xor	t4,a4,a0
  100944:	04812503          	lw	a0,72(sp)
  100948:	0115c5b3          	xor	a1,a1,a7
  10094c:	009748b3          	xor	a7,a4,s1
  100950:	03112223          	sw	a7,36(sp)
  100954:	06c12883          	lw	a7,108(sp)
  100958:	07012483          	lw	s1,112(sp)
  10095c:	00a74733          	xor	a4,a4,a0
  100960:	01194933          	xor	s2,s2,a7
  100964:	08c12883          	lw	a7,140(sp)
  100968:	04412503          	lw	a0,68(sp)
  10096c:	02b12023          	sw	a1,32(sp)
  100970:	0098c8b3          	xor	a7,a7,s1
  100974:	03112423          	sw	a7,40(sp)
  100978:	07412483          	lw	s1,116(sp)
  10097c:	0107c8b3          	xor	a7,a5,a6
  100980:	09012803          	lw	a6,144(sp)
  100984:	00a7c533          	xor	a0,a5,a0
  100988:	01a6c6b3          	xor	a3,a3,s10
  10098c:	009844b3          	xor	s1,a6,s1
  100990:	0087c833          	xor	a6,a5,s0
  100994:	09412403          	lw	s0,148(sp)
  100998:	01fccfb3          	xor	t6,s9,t6
  10099c:	01d9ceb3          	xor	t4,s3,t4
  1009a0:	00c44633          	xor	a2,s0,a2
  1009a4:	04c12403          	lw	s0,76(sp)
  1009a8:	07812583          	lw	a1,120(sp)
  1009ac:	00a64533          	xor	a0,a2,a0
  1009b0:	00e94733          	xor	a4,s2,a4
  1009b4:	00b44433          	xor	s0,s0,a1
  1009b8:	03c12583          	lw	a1,60(sp)
  1009bc:	0104c833          	xor	a6,s1,a6
  1009c0:	0ffb7b13          	andi	s6,s6,255
  1009c4:	00b7c7b3          	xor	a5,a5,a1
  1009c8:	00c12583          	lw	a1,12(sp)
  1009cc:	00f447b3          	xor	a5,s0,a5
  1009d0:	0ff6f693          	andi	a3,a3,255
  1009d4:	00b3c3b3          	xor	t2,t2,a1
  1009d8:	01012583          	lw	a1,16(sp)
  1009dc:	0ff3f393          	andi	t2,t2,255
  1009e0:	0fffff93          	andi	t6,t6,255
  1009e4:	01c5cab3          	xor	s5,a1,t3
  1009e8:	01412583          	lw	a1,20(sp)
  1009ec:	00812e03          	lw	t3,8(sp)
  1009f0:	0ffafa93          	andi	s5,s5,255
  1009f4:	00b2c2b3          	xor	t0,t0,a1
  1009f8:	01812583          	lw	a1,24(sp)
  1009fc:	0ff2f293          	andi	t0,t0,255
  100a00:	0ffefe93          	andi	t4,t4,255
  100a04:	01c5cd33          	xor	s10,a1,t3
  100a08:	01c12583          	lw	a1,28(sp)
  100a0c:	02012e03          	lw	t3,32(sp)
  100a10:	0ffd7d13          	andi	s10,s10,255
  100a14:	0145ca33          	xor	s4,a1,s4
  100a18:	02412583          	lw	a1,36(sp)
  100a1c:	0ffa7a13          	andi	s4,s4,255
  100a20:	0ff77713          	andi	a4,a4,255
  100a24:	00be45b3          	xor	a1,t3,a1
  100a28:	02812e03          	lw	t3,40(sp)
  100a2c:	0ff5f593          	andi	a1,a1,255
  100a30:	0ff87813          	andi	a6,a6,255
  100a34:	011e48b3          	xor	a7,t3,a7
  100a38:	0ff8f893          	andi	a7,a7,255
  100a3c:	0ff57513          	andi	a0,a0,255
  100a40:	0ff7f793          	andi	a5,a5,255
  100a44:	00730023          	sb	t2,0(t1)
  100a48:	017300a3          	sb	s7,1(t1)
  100a4c:	015301a3          	sb	s5,3(t1)
  100a50:	00d302a3          	sb	a3,5(t1)
  100a54:	01a30323          	sb	s10,6(t1)
  100a58:	014303a3          	sb	s4,7(t1)
  100a5c:	01f30423          	sb	t6,8(t1)
  100a60:	01d304a3          	sb	t4,9(t1)
  100a64:	00b30523          	sb	a1,10(t1)
  100a68:	00e305a3          	sb	a4,11(t1)
  100a6c:	01130623          	sb	a7,12(t1)
  100a70:	010306a3          	sb	a6,13(t1)
  100a74:	00a30723          	sb	a0,14(t1)
  100a78:	00f307a3          	sb	a5,15(t1)
  100a7c:	01630123          	sb	s6,2(t1)
  100a80:	00530223          	sb	t0,4(t1)
  100a84:	ff0f4603          	lbu	a2,-16(t5)
  100a88:	00c3c3b3          	xor	t2,t2,a2
  100a8c:	00730023          	sb	t2,0(t1)
  100a90:	ff1f4c83          	lbu	s9,-15(t5)
  100a94:	019bccb3          	xor	s9,s7,s9
  100a98:	019300a3          	sb	s9,1(t1)
  100a9c:	ff2f4b83          	lbu	s7,-14(t5)
  100aa0:	017b4bb3          	xor	s7,s6,s7
  100aa4:	01730123          	sb	s7,2(t1)
  100aa8:	ff3f4603          	lbu	a2,-13(t5)
  100aac:	00cac633          	xor	a2,s5,a2
  100ab0:	00c301a3          	sb	a2,3(t1)
  100ab4:	ff4f4a83          	lbu	s5,-12(t5)
  100ab8:	0152cab3          	xor	s5,t0,s5
  100abc:	01530223          	sb	s5,4(t1)
  100ac0:	ff5f4e03          	lbu	t3,-11(t5)
  100ac4:	01c6c6b3          	xor	a3,a3,t3
  100ac8:	00d302a3          	sb	a3,5(t1)
  100acc:	ff6f4e03          	lbu	t3,-10(t5)
  100ad0:	01cd4d33          	xor	s10,s10,t3
  100ad4:	01a30323          	sb	s10,6(t1)
  100ad8:	ff7f4e03          	lbu	t3,-9(t5)
  100adc:	01ca4a33          	xor	s4,s4,t3
  100ae0:	014303a3          	sb	s4,7(t1)
  100ae4:	ff8f4e03          	lbu	t3,-8(t5)
  100ae8:	01cfcfb3          	xor	t6,t6,t3
  100aec:	01f30423          	sb	t6,8(t1)
  100af0:	ff9f4e03          	lbu	t3,-7(t5)
  100af4:	01ceceb3          	xor	t4,t4,t3
  100af8:	01d304a3          	sb	t4,9(t1)
  100afc:	ffaf4e03          	lbu	t3,-6(t5)
  100b00:	01c5c5b3          	xor	a1,a1,t3
  100b04:	00b30523          	sb	a1,10(t1)
  100b08:	ffbf4e03          	lbu	t3,-5(t5)
  100b0c:	01c74733          	xor	a4,a4,t3
  100b10:	00e305a3          	sb	a4,11(t1)
  100b14:	ffcf4e03          	lbu	t3,-4(t5)
  100b18:	01c8c8b3          	xor	a7,a7,t3
  100b1c:	01130623          	sb	a7,12(t1)
  100b20:	ffdf4e03          	lbu	t3,-3(t5)
  100b24:	01c84833          	xor	a6,a6,t3
  100b28:	010306a3          	sb	a6,13(t1)
  100b2c:	ffef4e03          	lbu	t3,-2(t5)
  100b30:	01c54533          	xor	a0,a0,t3
  100b34:	00a30723          	sb	a0,14(t1)
  100b38:	ffff4e03          	lbu	t3,-1(t5)
  100b3c:	01c7c7b3          	xor	a5,a5,t3
  100b40:	00f307a3          	sb	a5,15(t1)
  100b44:	007d83b3          	add	t2,s11,t2
  100b48:	0003ce03          	lbu	t3,0(t2)
  100b4c:	015d8ab3          	add	s5,s11,s5
  100b50:	01fd8fb3          	add	t6,s11,t6
  100b54:	01c30023          	sb	t3,0(t1)
  100b58:	000ac283          	lbu	t0,0(s5)
  100b5c:	011d88b3          	add	a7,s11,a7
  100b60:	019d8cb3          	add	s9,s11,s9
  100b64:	00530223          	sb	t0,4(t1)
  100b68:	000fc903          	lbu	s2,0(t6)
  100b6c:	00dd86b3          	add	a3,s11,a3
  100b70:	01dd8eb3          	add	t4,s11,t4
  100b74:	01230423          	sb	s2,8(t1)
  100b78:	0008c983          	lbu	s3,0(a7)
  100b7c:	01ad88b3          	add	a7,s11,s10
  100b80:	010d8833          	add	a6,s11,a6
  100b84:	01330623          	sb	s3,12(t1)
  100b88:	000cc403          	lbu	s0,0(s9)
  100b8c:	017d8bb3          	add	s7,s11,s7
  100b90:	00bd85b3          	add	a1,s11,a1
  100b94:	008300a3          	sb	s0,1(t1)
  100b98:	0006cb03          	lbu	s6,0(a3)
  100b9c:	00ad8533          	add	a0,s11,a0
  100ba0:	00cd8633          	add	a2,s11,a2
  100ba4:	016302a3          	sb	s6,5(t1)
  100ba8:	000ecd03          	lbu	s10,0(t4)
  100bac:	03c12423          	sw	t3,40(sp)
  100bb0:	02512623          	sw	t0,44(sp)
  100bb4:	01a304a3          	sb	s10,9(t1)
  100bb8:	00084683          	lbu	a3,0(a6)
  100bbc:	03212823          	sw	s2,48(sp)
  100bc0:	03312a23          	sw	s3,52(sp)
  100bc4:	00d306a3          	sb	a3,13(t1)
  100bc8:	000bc483          	lbu	s1,0(s7)
  100bcc:	02d12c23          	sw	a3,56(sp)
  100bd0:	014d8a33          	add	s4,s11,s4
  100bd4:	00930123          	sb	s1,2(t1)
  100bd8:	0008c803          	lbu	a6,0(a7)
  100bdc:	00ed8733          	add	a4,s11,a4
  100be0:	00fd87b3          	add	a5,s11,a5
  100be4:	01030323          	sb	a6,6(t1)
  100be8:	0005cc03          	lbu	s8,0(a1)
  100bec:	05012223          	sw	a6,68(sp)
  100bf0:	01830523          	sb	s8,10(t1)
  100bf4:	00054883          	lbu	a7,0(a0)
  100bf8:	01130723          	sb	a7,14(t1)
  100bfc:	00064f83          	lbu	t6,0(a2)
  100c00:	01112423          	sw	a7,8(sp)
  100c04:	01f301a3          	sb	t6,3(t1)
  100c08:	000a4603          	lbu	a2,0(s4)
  100c0c:	00c303a3          	sb	a2,7(t1)
  100c10:	00074583          	lbu	a1,0(a4)
  100c14:	04c12423          	sw	a2,72(sp)
  100c18:	00060713          	mv	a4,a2
  100c1c:	00b305a3          	sb	a1,11(t1)
  100c20:	0007c503          	lbu	a0,0(a5)
  100c24:	00c305a3          	sb	a2,11(t1)
  100c28:	0b812603          	lw	a2,184(sp)
  100c2c:	00d304a3          	sb	a3,9(t1)
  100c30:	02b12e23          	sw	a1,60(sp)
  100c34:	04a12023          	sw	a0,64(sp)
  100c38:	016300a3          	sb	s6,1(t1)
  100c3c:	01a302a3          	sb	s10,5(t1)
  100c40:	008306a3          	sb	s0,13(t1)
  100c44:	01830123          	sb	s8,2(t1)
  100c48:	00930523          	sb	s1,10(t1)
  100c4c:	01130323          	sb	a7,6(t1)
  100c50:	01030723          	sb	a6,14(t1)
  100c54:	00a301a3          	sb	a0,3(t1)
  100c58:	00b307a3          	sb	a1,15(t1)
  100c5c:	01f303a3          	sb	t6,7(t1)
  100c60:	00068793          	mv	a5,a3
  100c64:	00080693          	mv	a3,a6
  100c68:	83e614e3          	bne	a2,t5,100490 <AES_ECB_encrypt+0x1c4>
  100c6c:	0bc12703          	lw	a4,188(sp)
  100c70:	000c0a93          	mv	s5,s8
  100c74:	00080513          	mv	a0,a6
  100c78:	0a074d83          	lbu	s11,160(a4)
  100c7c:	04812803          	lw	a6,72(sp)
  100c80:	01be4db3          	xor	s11,t3,s11
  100c84:	01b30023          	sb	s11,0(t1)
  100c88:	0a174783          	lbu	a5,161(a4)
  100c8c:	00fb47b3          	xor	a5,s6,a5
  100c90:	00f300a3          	sb	a5,1(t1)
  100c94:	0a274c03          	lbu	s8,162(a4)
  100c98:	04012783          	lw	a5,64(sp)
  100c9c:	018acc33          	xor	s8,s5,s8
  100ca0:	01830123          	sb	s8,2(t1)
  100ca4:	0a374603          	lbu	a2,163(a4)
  100ca8:	00c7c633          	xor	a2,a5,a2
  100cac:	00c301a3          	sb	a2,3(t1)
  100cb0:	0a474a83          	lbu	s5,164(a4)
  100cb4:	02c12783          	lw	a5,44(sp)
  100cb8:	0157cab3          	xor	s5,a5,s5
  100cbc:	01530223          	sb	s5,4(t1)
  100cc0:	0a574783          	lbu	a5,165(a4)
  100cc4:	00fd47b3          	xor	a5,s10,a5
  100cc8:	00f302a3          	sb	a5,5(t1)
  100ccc:	0a674903          	lbu	s2,166(a4)
  100cd0:	03012783          	lw	a5,48(sp)
  100cd4:	0128c933          	xor	s2,a7,s2
  100cd8:	01230323          	sb	s2,6(t1)
  100cdc:	0a774683          	lbu	a3,167(a4)
  100ce0:	00dfc6b3          	xor	a3,t6,a3
  100ce4:	00d303a3          	sb	a3,7(t1)
  100ce8:	0a874383          	lbu	t2,168(a4)
  100cec:	03812683          	lw	a3,56(sp)
  100cf0:	0077c3b3          	xor	t2,a5,t2
  100cf4:	00730423          	sb	t2,8(t1)
  100cf8:	0a974783          	lbu	a5,169(a4)
  100cfc:	00f6c7b3          	xor	a5,a3,a5
  100d00:	00f304a3          	sb	a5,9(t1)
  100d04:	0aa74f03          	lbu	t5,170(a4)
  100d08:	00070793          	mv	a5,a4
  100d0c:	03412683          	lw	a3,52(sp)
  100d10:	01e4cf33          	xor	t5,s1,t5
  100d14:	01e30523          	sb	t5,10(t1)
  100d18:	0ab74703          	lbu	a4,171(a4)
  100d1c:	00e84733          	xor	a4,a6,a4
  100d20:	00e305a3          	sb	a4,11(t1)
  100d24:	00078713          	mv	a4,a5
  100d28:	0ac7c783          	lbu	a5,172(a5)
  100d2c:	00f6c7b3          	xor	a5,a3,a5
  100d30:	00f30623          	sb	a5,12(t1)
  100d34:	0ad74783          	lbu	a5,173(a4)
  100d38:	00f447b3          	xor	a5,s0,a5
  100d3c:	00f306a3          	sb	a5,13(t1)
  100d40:	0ae74783          	lbu	a5,174(a4)
  100d44:	00f54533          	xor	a0,a0,a5
  100d48:	00a30723          	sb	a0,14(t1)
  100d4c:	0af74783          	lbu	a5,175(a4)
  100d50:	03c12703          	lw	a4,60(sp)
  100d54:	00f747b3          	xor	a5,a4,a5
  100d58:	00f307a3          	sb	a5,15(t1)
  100d5c:	0ec12403          	lw	s0,236(sp)
  100d60:	0e812483          	lw	s1,232(sp)
  100d64:	0e412903          	lw	s2,228(sp)
  100d68:	0e012983          	lw	s3,224(sp)
  100d6c:	0dc12a03          	lw	s4,220(sp)
  100d70:	0d812a83          	lw	s5,216(sp)
  100d74:	0d412b03          	lw	s6,212(sp)
  100d78:	0d012b83          	lw	s7,208(sp)
  100d7c:	0cc12c03          	lw	s8,204(sp)
  100d80:	0c812c83          	lw	s9,200(sp)
  100d84:	0c412d03          	lw	s10,196(sp)
  100d88:	0c012d83          	lw	s11,192(sp)
  100d8c:	0f010113          	addi	sp,sp,240
  100d90:	00008067          	ret

00100d94 <experiment_init>:
  100d94:	00001597          	auipc	a1,0x1
  100d98:	c0858593          	addi	a1,a1,-1016 # 10199c <key>
  100d9c:	00001517          	auipc	a0,0x1
  100da0:	c3450513          	addi	a0,a0,-972 # 1019d0 <ctx>
  100da4:	ae0ff06f          	j	100084 <AES_init_ctx>

00100da8 <experiment_run>:
  100da8:	fe010113          	addi	sp,sp,-32
  100dac:	00112e23          	sw	ra,28(sp)
  100db0:	00001797          	auipc	a5,0x1
  100db4:	bec78793          	addi	a5,a5,-1044 # 10199c <key>
  100db8:	0107a603          	lw	a2,16(a5)
  100dbc:	0147a683          	lw	a3,20(a5)
  100dc0:	0187a703          	lw	a4,24(a5)
  100dc4:	01c7a783          	lw	a5,28(a5)
  100dc8:	00010593          	mv	a1,sp
  100dcc:	00001517          	auipc	a0,0x1
  100dd0:	c0450513          	addi	a0,a0,-1020 # 1019d0 <ctx>
  100dd4:	00c12023          	sw	a2,0(sp)
  100dd8:	00d12223          	sw	a3,4(sp)
  100ddc:	00e12423          	sw	a4,8(sp)
  100de0:	00f12623          	sw	a5,12(sp)
  100de4:	ce8ff0ef          	jal	ra,1002cc <AES_ECB_encrypt>
  100de8:	01c12083          	lw	ra,28(sp)
  100dec:	02010113          	addi	sp,sp,32
  100df0:	00008067          	ret

00100df4 <putchar>:
  100df4:	0ff57793          	andi	a5,a0,255
  100df8:	10000737          	lui	a4,0x10000
  100dfc:	00f72023          	sw	a5,0(a4) # 10000000 <fromhost+0xecf7ff0>
  100e00:	00008067          	ret

00100e04 <puts>:
  100e04:	00054783          	lbu	a5,0(a0)
  100e08:	00078c63          	beqz	a5,100e20 <puts+0x1c>
  100e0c:	10000737          	lui	a4,0x10000
  100e10:	00150513          	addi	a0,a0,1
  100e14:	00f72023          	sw	a5,0(a4) # 10000000 <fromhost+0xecf7ff0>
  100e18:	00054783          	lbu	a5,0(a0)
  100e1c:	fe079ae3          	bnez	a5,100e10 <puts+0xc>
  100e20:	00000513          	li	a0,0
  100e24:	00008067          	ret

00100e28 <puthex>:
  100e28:	01c55793          	srli	a5,a0,0x1c
  100e2c:	00900713          	li	a4,9
  100e30:	0cf77a63          	bgeu	a4,a5,100f04 <puthex+0xdc>
  100e34:	03778793          	addi	a5,a5,55
  100e38:	10000737          	lui	a4,0x10000
  100e3c:	00f72023          	sw	a5,0(a4) # 10000000 <fromhost+0xecf7ff0>
  100e40:	00451793          	slli	a5,a0,0x4
  100e44:	01c7d793          	srli	a5,a5,0x1c
  100e48:	00900713          	li	a4,9
  100e4c:	0cf77a63          	bgeu	a4,a5,100f20 <puthex+0xf8>
  100e50:	03778793          	addi	a5,a5,55
  100e54:	10000737          	lui	a4,0x10000
  100e58:	00f72023          	sw	a5,0(a4) # 10000000 <fromhost+0xecf7ff0>
  100e5c:	00851793          	slli	a5,a0,0x8
  100e60:	01c7d793          	srli	a5,a5,0x1c
  100e64:	00900713          	li	a4,9
  100e68:	0cf77a63          	bgeu	a4,a5,100f3c <puthex+0x114>
  100e6c:	03778793          	addi	a5,a5,55
  100e70:	10000737          	lui	a4,0x10000
  100e74:	00f72023          	sw	a5,0(a4) # 10000000 <fromhost+0xecf7ff0>
  100e78:	00c51793          	slli	a5,a0,0xc
  100e7c:	01c7d793          	srli	a5,a5,0x1c
  100e80:	00900713          	li	a4,9
  100e84:	0cf77a63          	bgeu	a4,a5,100f58 <puthex+0x130>
  100e88:	03778793          	addi	a5,a5,55
  100e8c:	10000737          	lui	a4,0x10000
  100e90:	00f72023          	sw	a5,0(a4) # 10000000 <fromhost+0xecf7ff0>
  100e94:	01051793          	slli	a5,a0,0x10
  100e98:	01c7d793          	srli	a5,a5,0x1c
  100e9c:	00900713          	li	a4,9
  100ea0:	0cf77a63          	bgeu	a4,a5,100f74 <puthex+0x14c>
  100ea4:	03778793          	addi	a5,a5,55
  100ea8:	10000737          	lui	a4,0x10000
  100eac:	00f72023          	sw	a5,0(a4) # 10000000 <fromhost+0xecf7ff0>
  100eb0:	01451793          	slli	a5,a0,0x14
  100eb4:	01c7d793          	srli	a5,a5,0x1c
  100eb8:	00900713          	li	a4,9
  100ebc:	0cf77a63          	bgeu	a4,a5,100f90 <puthex+0x168>
  100ec0:	03778793          	addi	a5,a5,55
  100ec4:	10000737          	lui	a4,0x10000
  100ec8:	00f72023          	sw	a5,0(a4) # 10000000 <fromhost+0xecf7ff0>
  100ecc:	01851793          	slli	a5,a0,0x18
  100ed0:	01c7d793          	srli	a5,a5,0x1c
  100ed4:	00900713          	li	a4,9
  100ed8:	0cf77a63          	bgeu	a4,a5,100fac <puthex+0x184>
  100edc:	03778793          	addi	a5,a5,55
  100ee0:	10000737          	lui	a4,0x10000
  100ee4:	00f72023          	sw	a5,0(a4) # 10000000 <fromhost+0xecf7ff0>
  100ee8:	00f57513          	andi	a0,a0,15
  100eec:	00900793          	li	a5,9
  100ef0:	0ca7ea63          	bltu	a5,a0,100fc4 <puthex+0x19c>
  100ef4:	03050513          	addi	a0,a0,48
  100ef8:	100007b7          	lui	a5,0x10000
  100efc:	00a7a023          	sw	a0,0(a5) # 10000000 <fromhost+0xecf7ff0>
  100f00:	00008067          	ret
  100f04:	03078793          	addi	a5,a5,48
  100f08:	10000737          	lui	a4,0x10000
  100f0c:	00f72023          	sw	a5,0(a4) # 10000000 <fromhost+0xecf7ff0>
  100f10:	00451793          	slli	a5,a0,0x4
  100f14:	01c7d793          	srli	a5,a5,0x1c
  100f18:	00900713          	li	a4,9
  100f1c:	f2f76ae3          	bltu	a4,a5,100e50 <puthex+0x28>
  100f20:	03078793          	addi	a5,a5,48
  100f24:	10000737          	lui	a4,0x10000
  100f28:	00f72023          	sw	a5,0(a4) # 10000000 <fromhost+0xecf7ff0>
  100f2c:	00851793          	slli	a5,a0,0x8
  100f30:	01c7d793          	srli	a5,a5,0x1c
  100f34:	00900713          	li	a4,9
  100f38:	f2f76ae3          	bltu	a4,a5,100e6c <puthex+0x44>
  100f3c:	03078793          	addi	a5,a5,48
  100f40:	10000737          	lui	a4,0x10000
  100f44:	00f72023          	sw	a5,0(a4) # 10000000 <fromhost+0xecf7ff0>
  100f48:	00c51793          	slli	a5,a0,0xc
  100f4c:	01c7d793          	srli	a5,a5,0x1c
  100f50:	00900713          	li	a4,9
  100f54:	f2f76ae3          	bltu	a4,a5,100e88 <puthex+0x60>
  100f58:	03078793          	addi	a5,a5,48
  100f5c:	10000737          	lui	a4,0x10000
  100f60:	00f72023          	sw	a5,0(a4) # 10000000 <fromhost+0xecf7ff0>
  100f64:	01051793          	slli	a5,a0,0x10
  100f68:	01c7d793          	srli	a5,a5,0x1c
  100f6c:	00900713          	li	a4,9
  100f70:	f2f76ae3          	bltu	a4,a5,100ea4 <puthex+0x7c>
  100f74:	03078793          	addi	a5,a5,48
  100f78:	10000737          	lui	a4,0x10000
  100f7c:	00f72023          	sw	a5,0(a4) # 10000000 <fromhost+0xecf7ff0>
  100f80:	01451793          	slli	a5,a0,0x14
  100f84:	01c7d793          	srli	a5,a5,0x1c
  100f88:	00900713          	li	a4,9
  100f8c:	f2f76ae3          	bltu	a4,a5,100ec0 <puthex+0x98>
  100f90:	03078793          	addi	a5,a5,48
  100f94:	10000737          	lui	a4,0x10000
  100f98:	00f72023          	sw	a5,0(a4) # 10000000 <fromhost+0xecf7ff0>
  100f9c:	01851793          	slli	a5,a0,0x18
  100fa0:	01c7d793          	srli	a5,a5,0x1c
  100fa4:	00900713          	li	a4,9
  100fa8:	f2f76ae3          	bltu	a4,a5,100edc <puthex+0xb4>
  100fac:	03078793          	addi	a5,a5,48
  100fb0:	10000737          	lui	a4,0x10000
  100fb4:	00f72023          	sw	a5,0(a4) # 10000000 <fromhost+0xecf7ff0>
  100fb8:	00f57513          	andi	a0,a0,15
  100fbc:	00900793          	li	a5,9
  100fc0:	f2a7fae3          	bgeu	a5,a0,100ef4 <puthex+0xcc>
  100fc4:	03750513          	addi	a0,a0,55
  100fc8:	100007b7          	lui	a5,0x10000
  100fcc:	00a7a023          	sw	a0,0(a5) # 10000000 <fromhost+0xecf7ff0>
  100fd0:	00008067          	ret

00100fd4 <sim_halt>:
  100fd4:	100007b7          	lui	a5,0x10000
  100fd8:	00100713          	li	a4,1
  100fdc:	00e7a423          	sw	a4,8(a5) # 10000008 <fromhost+0xecf7ff8>
  100fe0:	00008067          	ret

00100fe4 <pcount_reset>:
  100fe4:	b0201073          	csrw	minstret,zero
  100fe8:	b0001073          	csrw	mcycle,zero
  100fec:	b0301073          	csrw	mhpmcounter3,zero
  100ff0:	b0401073          	csrw	mhpmcounter4,zero
  100ff4:	b0501073          	csrw	mhpmcounter5,zero
  100ff8:	b0601073          	csrw	mhpmcounter6,zero
  100ffc:	b0701073          	csrw	mhpmcounter7,zero
  101000:	b0801073          	csrw	mhpmcounter8,zero
  101004:	b0901073          	csrw	mhpmcounter9,zero
  101008:	b0a01073          	csrw	mhpmcounter10,zero
  10100c:	b0b01073          	csrw	mhpmcounter11,zero
  101010:	b0c01073          	csrw	mhpmcounter12,zero
  101014:	b0d01073          	csrw	mhpmcounter13,zero
  101018:	b0e01073          	csrw	mhpmcounter14,zero
  10101c:	b0f01073          	csrw	mhpmcounter15,zero
  101020:	b1001073          	csrw	mhpmcounter16,zero
  101024:	b1101073          	csrw	mhpmcounter17,zero
  101028:	b1201073          	csrw	mhpmcounter18,zero
  10102c:	b1301073          	csrw	mhpmcounter19,zero
  101030:	b1401073          	csrw	mhpmcounter20,zero
  101034:	b1501073          	csrw	mhpmcounter21,zero
  101038:	b1601073          	csrw	mhpmcounter22,zero
  10103c:	b1701073          	csrw	mhpmcounter23,zero
  101040:	b1801073          	csrw	mhpmcounter24,zero
  101044:	b1901073          	csrw	mhpmcounter25,zero
  101048:	b1a01073          	csrw	mhpmcounter26,zero
  10104c:	b1b01073          	csrw	mhpmcounter27,zero
  101050:	b1c01073          	csrw	mhpmcounter28,zero
  101054:	b1d01073          	csrw	mhpmcounter29,zero
  101058:	b1e01073          	csrw	mhpmcounter30,zero
  10105c:	b1f01073          	csrw	mhpmcounter31,zero
  101060:	b8201073          	csrw	minstreth,zero
  101064:	b8001073          	csrw	mcycleh,zero
  101068:	b8301073          	csrw	mhpmcounter3h,zero
  10106c:	b8401073          	csrw	mhpmcounter4h,zero
  101070:	b8501073          	csrw	mhpmcounter5h,zero
  101074:	b8601073          	csrw	mhpmcounter6h,zero
  101078:	b8701073          	csrw	mhpmcounter7h,zero
  10107c:	b8801073          	csrw	mhpmcounter8h,zero
  101080:	b8901073          	csrw	mhpmcounter9h,zero
  101084:	b8a01073          	csrw	mhpmcounter10h,zero
  101088:	b8b01073          	csrw	mhpmcounter11h,zero
  10108c:	b8c01073          	csrw	mhpmcounter12h,zero
  101090:	b8d01073          	csrw	mhpmcounter13h,zero
  101094:	b8e01073          	csrw	mhpmcounter14h,zero
  101098:	b8f01073          	csrw	mhpmcounter15h,zero
  10109c:	b9001073          	csrw	mhpmcounter16h,zero
  1010a0:	b9101073          	csrw	mhpmcounter17h,zero
  1010a4:	b9201073          	csrw	mhpmcounter18h,zero
  1010a8:	b9301073          	csrw	mhpmcounter19h,zero
  1010ac:	b9401073          	csrw	mhpmcounter20h,zero
  1010b0:	b9501073          	csrw	mhpmcounter21h,zero
  1010b4:	b9601073          	csrw	mhpmcounter22h,zero
  1010b8:	b9701073          	csrw	mhpmcounter23h,zero
  1010bc:	b9801073          	csrw	mhpmcounter24h,zero
  1010c0:	b9901073          	csrw	mhpmcounter25h,zero
  1010c4:	b9a01073          	csrw	mhpmcounter26h,zero
  1010c8:	b9b01073          	csrw	mhpmcounter27h,zero
  1010cc:	b9c01073          	csrw	mhpmcounter28h,zero
  1010d0:	b9d01073          	csrw	mhpmcounter29h,zero
  1010d4:	b9e01073          	csrw	mhpmcounter30h,zero
  1010d8:	b9f01073          	csrw	mhpmcounter31h,zero
  1010dc:	00008067          	ret

001010e0 <get_mepc>:
  1010e0:	34102573          	csrr	a0,mepc
  1010e4:	00008067          	ret

001010e8 <get_mcause>:
  1010e8:	34202573          	csrr	a0,mcause
  1010ec:	00008067          	ret

001010f0 <get_mtval>:
  1010f0:	34302573          	csrr	a0,mtval
  1010f4:	00008067          	ret

001010f8 <simple_exc_handler>:
  1010f8:	04500713          	li	a4,69
  1010fc:	00000797          	auipc	a5,0x0
  101100:	75078793          	addi	a5,a5,1872 # 10184c <main+0x5c>
  101104:	100006b7          	lui	a3,0x10000
  101108:	00178793          	addi	a5,a5,1
  10110c:	00e6a023          	sw	a4,0(a3) # 10000000 <fromhost+0xecf7ff0>
  101110:	0007c703          	lbu	a4,0(a5)
  101114:	fe071ae3          	bnez	a4,101108 <simple_exc_handler+0x10>
  101118:	03d00713          	li	a4,61
  10111c:	00000797          	auipc	a5,0x0
  101120:	74078793          	addi	a5,a5,1856 # 10185c <main+0x6c>
  101124:	100006b7          	lui	a3,0x10000
  101128:	00178793          	addi	a5,a5,1
  10112c:	00e6a023          	sw	a4,0(a3) # 10000000 <fromhost+0xecf7ff0>
  101130:	0007c703          	lbu	a4,0(a5)
  101134:	fe071ae3          	bnez	a4,101128 <simple_exc_handler+0x30>
  101138:	04d00713          	li	a4,77
  10113c:	00000797          	auipc	a5,0x0
  101140:	73078793          	addi	a5,a5,1840 # 10186c <main+0x7c>
  101144:	100006b7          	lui	a3,0x10000
  101148:	00178793          	addi	a5,a5,1
  10114c:	00e6a023          	sw	a4,0(a3) # 10000000 <fromhost+0xecf7ff0>
  101150:	0007c703          	lbu	a4,0(a5)
  101154:	fe071ae3          	bnez	a4,101148 <simple_exc_handler+0x50>
  101158:	341027f3          	csrr	a5,mepc
  10115c:	00900613          	li	a2,9
  101160:	01c7d713          	srli	a4,a5,0x1c
  101164:	42e67e63          	bgeu	a2,a4,1015a0 <simple_exc_handler+0x4a8>
  101168:	03770713          	addi	a4,a4,55
  10116c:	00e6a023          	sw	a4,0(a3)
  101170:	00479713          	slli	a4,a5,0x4
  101174:	01c75713          	srli	a4,a4,0x1c
  101178:	00900693          	li	a3,9
  10117c:	40e6fa63          	bgeu	a3,a4,101590 <simple_exc_handler+0x498>
  101180:	03770713          	addi	a4,a4,55
  101184:	100006b7          	lui	a3,0x10000
  101188:	00e6a023          	sw	a4,0(a3) # 10000000 <fromhost+0xecf7ff0>
  10118c:	00879713          	slli	a4,a5,0x8
  101190:	01c75713          	srli	a4,a4,0x1c
  101194:	00900693          	li	a3,9
  101198:	3ee6f463          	bgeu	a3,a4,101580 <simple_exc_handler+0x488>
  10119c:	03770713          	addi	a4,a4,55
  1011a0:	100006b7          	lui	a3,0x10000
  1011a4:	00e6a023          	sw	a4,0(a3) # 10000000 <fromhost+0xecf7ff0>
  1011a8:	00c79713          	slli	a4,a5,0xc
  1011ac:	01c75713          	srli	a4,a4,0x1c
  1011b0:	00900693          	li	a3,9
  1011b4:	3ae6fe63          	bgeu	a3,a4,101570 <simple_exc_handler+0x478>
  1011b8:	03770713          	addi	a4,a4,55
  1011bc:	100006b7          	lui	a3,0x10000
  1011c0:	00e6a023          	sw	a4,0(a3) # 10000000 <fromhost+0xecf7ff0>
  1011c4:	01079713          	slli	a4,a5,0x10
  1011c8:	01c75713          	srli	a4,a4,0x1c
  1011cc:	00900693          	li	a3,9
  1011d0:	38e6f863          	bgeu	a3,a4,101560 <simple_exc_handler+0x468>
  1011d4:	03770713          	addi	a4,a4,55
  1011d8:	100006b7          	lui	a3,0x10000
  1011dc:	00e6a023          	sw	a4,0(a3) # 10000000 <fromhost+0xecf7ff0>
  1011e0:	01479713          	slli	a4,a5,0x14
  1011e4:	01c75713          	srli	a4,a4,0x1c
  1011e8:	00900693          	li	a3,9
  1011ec:	36e6f263          	bgeu	a3,a4,101550 <simple_exc_handler+0x458>
  1011f0:	03770713          	addi	a4,a4,55
  1011f4:	100006b7          	lui	a3,0x10000
  1011f8:	00e6a023          	sw	a4,0(a3) # 10000000 <fromhost+0xecf7ff0>
  1011fc:	01879713          	slli	a4,a5,0x18
  101200:	01c75713          	srli	a4,a4,0x1c
  101204:	00900693          	li	a3,9
  101208:	32e6fc63          	bgeu	a3,a4,101540 <simple_exc_handler+0x448>
  10120c:	03770713          	addi	a4,a4,55
  101210:	100006b7          	lui	a3,0x10000
  101214:	00e6a023          	sw	a4,0(a3) # 10000000 <fromhost+0xecf7ff0>
  101218:	00f7f793          	andi	a5,a5,15
  10121c:	00900713          	li	a4,9
  101220:	30f76863          	bltu	a4,a5,101530 <simple_exc_handler+0x438>
  101224:	03078793          	addi	a5,a5,48
  101228:	10000737          	lui	a4,0x10000
  10122c:	00f72023          	sw	a5,0(a4) # 10000000 <fromhost+0xecf7ff0>
  101230:	00a00713          	li	a4,10
  101234:	00000797          	auipc	a5,0x0
  101238:	64478793          	addi	a5,a5,1604 # 101878 <main+0x88>
  10123c:	100006b7          	lui	a3,0x10000
  101240:	00178793          	addi	a5,a5,1
  101244:	00e6a023          	sw	a4,0(a3) # 10000000 <fromhost+0xecf7ff0>
  101248:	0007c703          	lbu	a4,0(a5)
  10124c:	fe071ae3          	bnez	a4,101240 <simple_exc_handler+0x148>
  101250:	342027f3          	csrr	a5,mcause
  101254:	00900613          	li	a2,9
  101258:	01c7d713          	srli	a4,a5,0x1c
  10125c:	2ce67463          	bgeu	a2,a4,101524 <simple_exc_handler+0x42c>
  101260:	03770713          	addi	a4,a4,55
  101264:	00e6a023          	sw	a4,0(a3)
  101268:	00479713          	slli	a4,a5,0x4
  10126c:	01c75713          	srli	a4,a4,0x1c
  101270:	00900693          	li	a3,9
  101274:	2ae6f063          	bgeu	a3,a4,101514 <simple_exc_handler+0x41c>
  101278:	03770713          	addi	a4,a4,55
  10127c:	100006b7          	lui	a3,0x10000
  101280:	00e6a023          	sw	a4,0(a3) # 10000000 <fromhost+0xecf7ff0>
  101284:	00879713          	slli	a4,a5,0x8
  101288:	01c75713          	srli	a4,a4,0x1c
  10128c:	00900693          	li	a3,9
  101290:	26e6fa63          	bgeu	a3,a4,101504 <simple_exc_handler+0x40c>
  101294:	03770713          	addi	a4,a4,55
  101298:	100006b7          	lui	a3,0x10000
  10129c:	00e6a023          	sw	a4,0(a3) # 10000000 <fromhost+0xecf7ff0>
  1012a0:	00c79713          	slli	a4,a5,0xc
  1012a4:	01c75713          	srli	a4,a4,0x1c
  1012a8:	00900693          	li	a3,9
  1012ac:	24e6f463          	bgeu	a3,a4,1014f4 <simple_exc_handler+0x3fc>
  1012b0:	03770713          	addi	a4,a4,55
  1012b4:	100006b7          	lui	a3,0x10000
  1012b8:	00e6a023          	sw	a4,0(a3) # 10000000 <fromhost+0xecf7ff0>
  1012bc:	01079713          	slli	a4,a5,0x10
  1012c0:	01c75713          	srli	a4,a4,0x1c
  1012c4:	00900693          	li	a3,9
  1012c8:	20e6fe63          	bgeu	a3,a4,1014e4 <simple_exc_handler+0x3ec>
  1012cc:	03770713          	addi	a4,a4,55
  1012d0:	100006b7          	lui	a3,0x10000
  1012d4:	00e6a023          	sw	a4,0(a3) # 10000000 <fromhost+0xecf7ff0>
  1012d8:	01479713          	slli	a4,a5,0x14
  1012dc:	01c75713          	srli	a4,a4,0x1c
  1012e0:	00900693          	li	a3,9
  1012e4:	1ee6f863          	bgeu	a3,a4,1014d4 <simple_exc_handler+0x3dc>
  1012e8:	03770713          	addi	a4,a4,55
  1012ec:	100006b7          	lui	a3,0x10000
  1012f0:	00e6a023          	sw	a4,0(a3) # 10000000 <fromhost+0xecf7ff0>
  1012f4:	01879713          	slli	a4,a5,0x18
  1012f8:	01c75713          	srli	a4,a4,0x1c
  1012fc:	00900693          	li	a3,9
  101300:	1ce6f263          	bgeu	a3,a4,1014c4 <simple_exc_handler+0x3cc>
  101304:	03770713          	addi	a4,a4,55
  101308:	100006b7          	lui	a3,0x10000
  10130c:	00e6a023          	sw	a4,0(a3) # 10000000 <fromhost+0xecf7ff0>
  101310:	00f7f793          	andi	a5,a5,15
  101314:	00900713          	li	a4,9
  101318:	18f76e63          	bltu	a4,a5,1014b4 <simple_exc_handler+0x3bc>
  10131c:	03078793          	addi	a5,a5,48
  101320:	10000737          	lui	a4,0x10000
  101324:	00f72023          	sw	a5,0(a4) # 10000000 <fromhost+0xecf7ff0>
  101328:	00a00713          	li	a4,10
  10132c:	00000797          	auipc	a5,0x0
  101330:	55878793          	addi	a5,a5,1368 # 101884 <main+0x94>
  101334:	100006b7          	lui	a3,0x10000
  101338:	00178793          	addi	a5,a5,1
  10133c:	00e6a023          	sw	a4,0(a3) # 10000000 <fromhost+0xecf7ff0>
  101340:	0007c703          	lbu	a4,0(a5)
  101344:	fe071ae3          	bnez	a4,101338 <simple_exc_handler+0x240>
  101348:	343027f3          	csrr	a5,mtval
  10134c:	00900613          	li	a2,9
  101350:	01c7d713          	srli	a4,a5,0x1c
  101354:	14e67a63          	bgeu	a2,a4,1014a8 <simple_exc_handler+0x3b0>
  101358:	03770713          	addi	a4,a4,55
  10135c:	00e6a023          	sw	a4,0(a3)
  101360:	00479713          	slli	a4,a5,0x4
  101364:	01c75713          	srli	a4,a4,0x1c
  101368:	00900693          	li	a3,9
  10136c:	12e6f663          	bgeu	a3,a4,101498 <simple_exc_handler+0x3a0>
  101370:	03770713          	addi	a4,a4,55
  101374:	100006b7          	lui	a3,0x10000
  101378:	00e6a023          	sw	a4,0(a3) # 10000000 <fromhost+0xecf7ff0>
  10137c:	00879713          	slli	a4,a5,0x8
  101380:	01c75713          	srli	a4,a4,0x1c
  101384:	00900693          	li	a3,9
  101388:	10e6f063          	bgeu	a3,a4,101488 <simple_exc_handler+0x390>
  10138c:	03770713          	addi	a4,a4,55
  101390:	100006b7          	lui	a3,0x10000
  101394:	00e6a023          	sw	a4,0(a3) # 10000000 <fromhost+0xecf7ff0>
  101398:	00c79713          	slli	a4,a5,0xc
  10139c:	01c75713          	srli	a4,a4,0x1c
  1013a0:	00900693          	li	a3,9
  1013a4:	0ce6fa63          	bgeu	a3,a4,101478 <simple_exc_handler+0x380>
  1013a8:	03770713          	addi	a4,a4,55
  1013ac:	100006b7          	lui	a3,0x10000
  1013b0:	00e6a023          	sw	a4,0(a3) # 10000000 <fromhost+0xecf7ff0>
  1013b4:	01079713          	slli	a4,a5,0x10
  1013b8:	01c75713          	srli	a4,a4,0x1c
  1013bc:	00900693          	li	a3,9
  1013c0:	0ae6f463          	bgeu	a3,a4,101468 <simple_exc_handler+0x370>
  1013c4:	03770713          	addi	a4,a4,55
  1013c8:	100006b7          	lui	a3,0x10000
  1013cc:	00e6a023          	sw	a4,0(a3) # 10000000 <fromhost+0xecf7ff0>
  1013d0:	01479713          	slli	a4,a5,0x14
  1013d4:	01c75713          	srli	a4,a4,0x1c
  1013d8:	00900693          	li	a3,9
  1013dc:	06e6fe63          	bgeu	a3,a4,101458 <simple_exc_handler+0x360>
  1013e0:	03770713          	addi	a4,a4,55
  1013e4:	100006b7          	lui	a3,0x10000
  1013e8:	00e6a023          	sw	a4,0(a3) # 10000000 <fromhost+0xecf7ff0>
  1013ec:	01879713          	slli	a4,a5,0x18
  1013f0:	01c75713          	srli	a4,a4,0x1c
  1013f4:	00900693          	li	a3,9
  1013f8:	04e6f863          	bgeu	a3,a4,101448 <simple_exc_handler+0x350>
  1013fc:	03770713          	addi	a4,a4,55
  101400:	100006b7          	lui	a3,0x10000
  101404:	00e6a023          	sw	a4,0(a3) # 10000000 <fromhost+0xecf7ff0>
  101408:	00f7f793          	andi	a5,a5,15
  10140c:	00900713          	li	a4,9
  101410:	02f76463          	bltu	a4,a5,101438 <simple_exc_handler+0x340>
  101414:	03078793          	addi	a5,a5,48
  101418:	10000737          	lui	a4,0x10000
  10141c:	00f72023          	sw	a5,0(a4) # 10000000 <fromhost+0xecf7ff0>
  101420:	100007b7          	lui	a5,0x10000
  101424:	00a00713          	li	a4,10
  101428:	00e7a023          	sw	a4,0(a5) # 10000000 <fromhost+0xecf7ff0>
  10142c:	00100713          	li	a4,1
  101430:	00e7a423          	sw	a4,8(a5)
  101434:	0000006f          	j	101434 <simple_exc_handler+0x33c>
  101438:	03778793          	addi	a5,a5,55
  10143c:	10000737          	lui	a4,0x10000
  101440:	00f72023          	sw	a5,0(a4) # 10000000 <fromhost+0xecf7ff0>
  101444:	fddff06f          	j	101420 <simple_exc_handler+0x328>
  101448:	03070713          	addi	a4,a4,48
  10144c:	100006b7          	lui	a3,0x10000
  101450:	00e6a023          	sw	a4,0(a3) # 10000000 <fromhost+0xecf7ff0>
  101454:	fb5ff06f          	j	101408 <simple_exc_handler+0x310>
  101458:	03070713          	addi	a4,a4,48
  10145c:	100006b7          	lui	a3,0x10000
  101460:	00e6a023          	sw	a4,0(a3) # 10000000 <fromhost+0xecf7ff0>
  101464:	f89ff06f          	j	1013ec <simple_exc_handler+0x2f4>
  101468:	03070713          	addi	a4,a4,48
  10146c:	100006b7          	lui	a3,0x10000
  101470:	00e6a023          	sw	a4,0(a3) # 10000000 <fromhost+0xecf7ff0>
  101474:	f5dff06f          	j	1013d0 <simple_exc_handler+0x2d8>
  101478:	03070713          	addi	a4,a4,48
  10147c:	100006b7          	lui	a3,0x10000
  101480:	00e6a023          	sw	a4,0(a3) # 10000000 <fromhost+0xecf7ff0>
  101484:	f31ff06f          	j	1013b4 <simple_exc_handler+0x2bc>
  101488:	03070713          	addi	a4,a4,48
  10148c:	100006b7          	lui	a3,0x10000
  101490:	00e6a023          	sw	a4,0(a3) # 10000000 <fromhost+0xecf7ff0>
  101494:	f05ff06f          	j	101398 <simple_exc_handler+0x2a0>
  101498:	03070713          	addi	a4,a4,48
  10149c:	100006b7          	lui	a3,0x10000
  1014a0:	00e6a023          	sw	a4,0(a3) # 10000000 <fromhost+0xecf7ff0>
  1014a4:	ed9ff06f          	j	10137c <simple_exc_handler+0x284>
  1014a8:	03070713          	addi	a4,a4,48
  1014ac:	00e6a023          	sw	a4,0(a3)
  1014b0:	eb1ff06f          	j	101360 <simple_exc_handler+0x268>
  1014b4:	03778793          	addi	a5,a5,55
  1014b8:	10000737          	lui	a4,0x10000
  1014bc:	00f72023          	sw	a5,0(a4) # 10000000 <fromhost+0xecf7ff0>
  1014c0:	e69ff06f          	j	101328 <simple_exc_handler+0x230>
  1014c4:	03070713          	addi	a4,a4,48
  1014c8:	100006b7          	lui	a3,0x10000
  1014cc:	00e6a023          	sw	a4,0(a3) # 10000000 <fromhost+0xecf7ff0>
  1014d0:	e41ff06f          	j	101310 <simple_exc_handler+0x218>
  1014d4:	03070713          	addi	a4,a4,48
  1014d8:	100006b7          	lui	a3,0x10000
  1014dc:	00e6a023          	sw	a4,0(a3) # 10000000 <fromhost+0xecf7ff0>
  1014e0:	e15ff06f          	j	1012f4 <simple_exc_handler+0x1fc>
  1014e4:	03070713          	addi	a4,a4,48
  1014e8:	100006b7          	lui	a3,0x10000
  1014ec:	00e6a023          	sw	a4,0(a3) # 10000000 <fromhost+0xecf7ff0>
  1014f0:	de9ff06f          	j	1012d8 <simple_exc_handler+0x1e0>
  1014f4:	03070713          	addi	a4,a4,48
  1014f8:	100006b7          	lui	a3,0x10000
  1014fc:	00e6a023          	sw	a4,0(a3) # 10000000 <fromhost+0xecf7ff0>
  101500:	dbdff06f          	j	1012bc <simple_exc_handler+0x1c4>
  101504:	03070713          	addi	a4,a4,48
  101508:	100006b7          	lui	a3,0x10000
  10150c:	00e6a023          	sw	a4,0(a3) # 10000000 <fromhost+0xecf7ff0>
  101510:	d91ff06f          	j	1012a0 <simple_exc_handler+0x1a8>
  101514:	03070713          	addi	a4,a4,48
  101518:	100006b7          	lui	a3,0x10000
  10151c:	00e6a023          	sw	a4,0(a3) # 10000000 <fromhost+0xecf7ff0>
  101520:	d65ff06f          	j	101284 <simple_exc_handler+0x18c>
  101524:	03070713          	addi	a4,a4,48
  101528:	00e6a023          	sw	a4,0(a3)
  10152c:	d3dff06f          	j	101268 <simple_exc_handler+0x170>
  101530:	03778793          	addi	a5,a5,55
  101534:	10000737          	lui	a4,0x10000
  101538:	00f72023          	sw	a5,0(a4) # 10000000 <fromhost+0xecf7ff0>
  10153c:	cf5ff06f          	j	101230 <simple_exc_handler+0x138>
  101540:	03070713          	addi	a4,a4,48
  101544:	100006b7          	lui	a3,0x10000
  101548:	00e6a023          	sw	a4,0(a3) # 10000000 <fromhost+0xecf7ff0>
  10154c:	ccdff06f          	j	101218 <simple_exc_handler+0x120>
  101550:	03070713          	addi	a4,a4,48
  101554:	100006b7          	lui	a3,0x10000
  101558:	00e6a023          	sw	a4,0(a3) # 10000000 <fromhost+0xecf7ff0>
  10155c:	ca1ff06f          	j	1011fc <simple_exc_handler+0x104>
  101560:	03070713          	addi	a4,a4,48
  101564:	100006b7          	lui	a3,0x10000
  101568:	00e6a023          	sw	a4,0(a3) # 10000000 <fromhost+0xecf7ff0>
  10156c:	c75ff06f          	j	1011e0 <simple_exc_handler+0xe8>
  101570:	03070713          	addi	a4,a4,48
  101574:	100006b7          	lui	a3,0x10000
  101578:	00e6a023          	sw	a4,0(a3) # 10000000 <fromhost+0xecf7ff0>
  10157c:	c49ff06f          	j	1011c4 <simple_exc_handler+0xcc>
  101580:	03070713          	addi	a4,a4,48
  101584:	100006b7          	lui	a3,0x10000
  101588:	00e6a023          	sw	a4,0(a3) # 10000000 <fromhost+0xecf7ff0>
  10158c:	c1dff06f          	j	1011a8 <simple_exc_handler+0xb0>
  101590:	03070713          	addi	a4,a4,48
  101594:	100006b7          	lui	a3,0x10000
  101598:	00e6a023          	sw	a4,0(a3) # 10000000 <fromhost+0xecf7ff0>
  10159c:	bf1ff06f          	j	10118c <simple_exc_handler+0x94>
  1015a0:	03070713          	addi	a4,a4,48
  1015a4:	00e6a023          	sw	a4,0(a3)
  1015a8:	bc9ff06f          	j	101170 <simple_exc_handler+0x78>

001015ac <timer_enable>:
  1015ac:	00000717          	auipc	a4,0x0
  1015b0:	41c70713          	addi	a4,a4,1052 # 1019c8 <time_elapsed>
  1015b4:	00000613          	li	a2,0
  1015b8:	00000797          	auipc	a5,0x0
  1015bc:	40878793          	addi	a5,a5,1032 # 1019c0 <time_increment>
  1015c0:	00000693          	li	a3,0
  1015c4:	00c72023          	sw	a2,0(a4)
  1015c8:	00a7a023          	sw	a0,0(a5)
  1015cc:	00b7a223          	sw	a1,4(a5)
  1015d0:	00d72223          	sw	a3,4(a4)
  1015d4:	000307b7          	lui	a5,0x30
  1015d8:	0047a703          	lw	a4,4(a5) # 30004 <tohost+0xfffc>
  1015dc:	0007a603          	lw	a2,0(a5)
  1015e0:	0047a683          	lw	a3,4(a5)
  1015e4:	fed71ae3          	bne	a4,a3,1015d8 <timer_enable+0x2c>
  1015e8:	00a60533          	add	a0,a2,a0
  1015ec:	00c53633          	sltu	a2,a0,a2
  1015f0:	00b70733          	add	a4,a4,a1
  1015f4:	fff00693          	li	a3,-1
  1015f8:	00d7a423          	sw	a3,8(a5)
  1015fc:	00e60733          	add	a4,a2,a4
  101600:	00e7a623          	sw	a4,12(a5)
  101604:	00a7a423          	sw	a0,8(a5)
  101608:	08000793          	li	a5,128
  10160c:	3047a073          	csrs	mie,a5
  101610:	00800793          	li	a5,8
  101614:	3007a073          	csrs	mstatus,a5
  101618:	00008067          	ret

0010161c <timer_disable>:
  10161c:	08000793          	li	a5,128
  101620:	3047b073          	csrc	mie,a5
  101624:	00008067          	ret

00101628 <timer_read>:
  101628:	000307b7          	lui	a5,0x30
  10162c:	0047a703          	lw	a4,4(a5) # 30004 <tohost+0xfffc>
  101630:	0007a503          	lw	a0,0(a5)
  101634:	0047a583          	lw	a1,4(a5)
  101638:	fee59ae3          	bne	a1,a4,10162c <timer_read+0x4>
  10163c:	00008067          	ret

00101640 <timecmp_update>:
  101640:	000307b7          	lui	a5,0x30
  101644:	fff00713          	li	a4,-1
  101648:	00e7a423          	sw	a4,8(a5) # 30008 <tohost+0x10000>
  10164c:	00b7a623          	sw	a1,12(a5)
  101650:	00a7a423          	sw	a0,8(a5)
  101654:	00008067          	ret

00101658 <get_elapsed_time>:
  101658:	00000797          	auipc	a5,0x0
  10165c:	37078793          	addi	a5,a5,880 # 1019c8 <time_elapsed>
  101660:	0007a503          	lw	a0,0(a5)
  101664:	0047a583          	lw	a1,4(a5)
  101668:	00008067          	ret

0010166c <simple_timer_handler>:
  10166c:	fe010113          	addi	sp,sp,-32
  101670:	00f12423          	sw	a5,8(sp)
  101674:	00000797          	auipc	a5,0x0
  101678:	34c78793          	addi	a5,a5,844 # 1019c0 <time_increment>
  10167c:	00a12e23          	sw	a0,28(sp)
  101680:	00b12c23          	sw	a1,24(sp)
  101684:	0047a503          	lw	a0,4(a5)
  101688:	0007a583          	lw	a1,0(a5)
  10168c:	00c12a23          	sw	a2,20(sp)
  101690:	00d12823          	sw	a3,16(sp)
  101694:	00e12623          	sw	a4,12(sp)
  101698:	01012223          	sw	a6,4(sp)
  10169c:	01112023          	sw	a7,0(sp)
  1016a0:	000307b7          	lui	a5,0x30
  1016a4:	0047a703          	lw	a4,4(a5) # 30004 <tohost+0xfffc>
  1016a8:	0007a603          	lw	a2,0(a5)
  1016ac:	0047a683          	lw	a3,4(a5)
  1016b0:	fed71ae3          	bne	a4,a3,1016a4 <simple_timer_handler+0x38>
  1016b4:	00b606b3          	add	a3,a2,a1
  1016b8:	00c6b633          	sltu	a2,a3,a2
  1016bc:	00a70733          	add	a4,a4,a0
  1016c0:	fff00593          	li	a1,-1
  1016c4:	00b7a423          	sw	a1,8(a5)
  1016c8:	00e60733          	add	a4,a2,a4
  1016cc:	00e7a623          	sw	a4,12(a5)
  1016d0:	00d7a423          	sw	a3,8(a5)
  1016d4:	00000597          	auipc	a1,0x0
  1016d8:	2f458593          	addi	a1,a1,756 # 1019c8 <time_elapsed>
  1016dc:	0005a803          	lw	a6,0(a1)
  1016e0:	0045a883          	lw	a7,4(a1)
  1016e4:	01012683          	lw	a3,16(sp)
  1016e8:	00180513          	addi	a0,a6,1
  1016ec:	01053633          	sltu	a2,a0,a6
  1016f0:	011607b3          	add	a5,a2,a7
  1016f4:	00a5a023          	sw	a0,0(a1)
  1016f8:	00f5a223          	sw	a5,4(a1)
  1016fc:	01c12503          	lw	a0,28(sp)
  101700:	01812583          	lw	a1,24(sp)
  101704:	01412603          	lw	a2,20(sp)
  101708:	00c12703          	lw	a4,12(sp)
  10170c:	00812783          	lw	a5,8(sp)
  101710:	00412803          	lw	a6,4(sp)
  101714:	00012883          	lw	a7,0(sp)
  101718:	02010113          	addi	sp,sp,32
  10171c:	30200073          	mret

00101720 <default_exc_handler>:
  101720:	9d9ff06f          	j	1010f8 <simple_exc_handler>

00101724 <timer_handler>:
  101724:	f49ff06f          	j	10166c <simple_timer_handler>

00101728 <reset_handler>:
  101728:	00000093          	li	ra,0
  10172c:	00008113          	mv	sp,ra
  101730:	00008193          	mv	gp,ra
  101734:	00008213          	mv	tp,ra
  101738:	00008293          	mv	t0,ra
  10173c:	00008313          	mv	t1,ra
  101740:	00008393          	mv	t2,ra
  101744:	00008413          	mv	s0,ra
  101748:	00008493          	mv	s1,ra
  10174c:	00008513          	mv	a0,ra
  101750:	00008593          	mv	a1,ra
  101754:	00008613          	mv	a2,ra
  101758:	00008693          	mv	a3,ra
  10175c:	00008713          	mv	a4,ra
  101760:	00008793          	mv	a5,ra
  101764:	00008813          	mv	a6,ra
  101768:	00008893          	mv	a7,ra
  10176c:	00008913          	mv	s2,ra
  101770:	00008993          	mv	s3,ra
  101774:	00008a13          	mv	s4,ra
  101778:	00008a93          	mv	s5,ra
  10177c:	00008b13          	mv	s6,ra
  101780:	00008b93          	mv	s7,ra
  101784:	00008c13          	mv	s8,ra
  101788:	00008c93          	mv	s9,ra
  10178c:	00008d13          	mv	s10,ra
  101790:	00008d93          	mv	s11,ra
  101794:	00008e13          	mv	t3,ra
  101798:	00008e93          	mv	t4,ra
  10179c:	00008f13          	mv	t5,ra
  1017a0:	00008f93          	mv	t6,ra
  1017a4:	01207117          	auipc	sp,0x1207
  1017a8:	85c10113          	addi	sp,sp,-1956 # 1308000 <_stack_start>

001017ac <_start>:
  1017ac:	00000d17          	auipc	s10,0x0
  1017b0:	214d0d13          	addi	s10,s10,532 # 1019c0 <time_increment>
  1017b4:	00000d97          	auipc	s11,0x0
  1017b8:	2ccd8d93          	addi	s11,s11,716 # 101a80 <_bss_end>
  1017bc:	01bd5863          	bge	s10,s11,1017cc <main_entry>

001017c0 <zero_loop>:
  1017c0:	000d2023          	sw	zero,0(s10)
  1017c4:	004d0d13          	addi	s10,s10,4
  1017c8:	ffaddce3          	bge	s11,s10,1017c0 <zero_loop>

001017cc <main_entry>:
  1017cc:	00000513          	li	a0,0
  1017d0:	00000593          	li	a1,0
  1017d4:	01c000ef          	jal	ra,1017f0 <main>
  1017d8:	100002b7          	lui	t0,0x10000
  1017dc:	00828293          	addi	t0,t0,8 # 10000008 <fromhost+0xecf7ff8>
  1017e0:	00100313          	li	t1,1
  1017e4:	0062a023          	sw	t1,0(t0)

001017e8 <sleep_loop>:
  1017e8:	10500073          	wfi
  1017ec:	ffdff06f          	j	1017e8 <sleep_loop>

001017f0 <main>:
  1017f0:	ff010113          	addi	sp,sp,-16
  1017f4:	00112623          	sw	ra,12(sp)
  1017f8:	00812423          	sw	s0,8(sp)
  1017fc:	fff00793          	li	a5,-1
  101800:	00f31437          	lui	s0,0xf31
  101804:	f2f42823          	sw	a5,-208(s0) # f30f30 <_bss_end+0xe2f4b0>
  101808:	00000517          	auipc	a0,0x0
  10180c:	03c50513          	addi	a0,a0,60 # 101844 <main+0x54>
  101810:	df4ff0ef          	jal	ra,100e04 <puts>
  101814:	00000517          	auipc	a0,0x0
  101818:	1bc50513          	addi	a0,a0,444 # 1019d0 <ctx>
  10181c:	00000597          	auipc	a1,0x0
  101820:	18058593          	addi	a1,a1,384 # 10199c <key>
  101824:	861fe0ef          	jal	ra,100084 <AES_init_ctx>
  101828:	d80ff0ef          	jal	ra,100da8 <experiment_run>
  10182c:	00c12083          	lw	ra,12(sp)
  101830:	f2042823          	sw	zero,-208(s0)
  101834:	00812403          	lw	s0,8(sp)
  101838:	00000513          	li	a0,0
  10183c:	01010113          	addi	sp,sp,16
  101840:	00008067          	ret
